target datalayout = "e-m:e-p270:32:32-p271:32:32-p272:64:64-i64:64-i128:128-f80:128-n8:16:32:64-S128"
target triple = "x86_64-pc-linux-gnu"

@_ZN11TypeInstPtr7NOTNULLE = external global ptr, align 8
@_ZN10TypeRawPtr7NOTNULLE = external global ptr, align 8
@_ZN7TypeInt3INTE = external global ptr, align 8

; Function Attrs: mustprogress nounwind uwtable
define hidden noundef ptr @_ZN11OptoRuntime19multianewarray_TypeEi(i32 noundef %0) #1 align 2 {
  %2 = alloca i32, align 4
  %3 = alloca i32, align 4
  %4 = alloca ptr, align 8
  %5 = alloca i32, align 4
  %6 = alloca ptr, align 8
  %7 = alloca ptr, align 8
  store i32 %0, ptr %2, align 4
  %8 = load i32, ptr %2, align 4
  %9 = add nsw i32 %8, 1
  store i32 %9, ptr %3, align 4
  %10 = load i32, ptr %3, align 4
  %11 = call noundef ptr @_ZN9TypeTuple6fieldsEj(i32 noundef %10)
  store ptr %11, ptr %4, align 8
  %12 = load ptr, ptr @_ZN11TypeInstPtr7NOTNULLE, align 8
  %13 = load ptr, ptr %4, align 8
  %14 = getelementptr inbounds ptr, ptr %13, i64 5
  store ptr %12, ptr %14, align 8
  store i32 1, ptr %5, align 4
  br label %15

15:                                               ; preds = %26, %1
  %16 = load i32, ptr %5, align 4
  %17 = load i32, ptr %3, align 4
  %18 = icmp slt i32 %16, %17
  br i1 %18, label %19, label %29

19:                                               ; preds = %15
  %20 = load ptr, ptr @_ZN7TypeInt3INTE, align 8
  %21 = load ptr, ptr %4, align 8
  %22 = load i32, ptr %5, align 4
  %23 = add nsw i32 5, %22
  %24 = sext i32 %23 to i64
  %25 = getelementptr inbounds ptr, ptr %21, i64 %24
  store ptr %20, ptr %25, align 8
  br label %26

26:                                               ; preds = %19
  %27 = load i32, ptr %5, align 4
  %28 = add nsw i32 %27, 1
  store i32 %28, ptr %5, align 4
  br label %15, !llvm.loop !6

29:                                               ; preds = %15
  %30 = load i32, ptr %3, align 4
  %31 = add nsw i32 5, %30
  %32 = load ptr, ptr %4, align 8
  %33 = call noundef ptr @_ZN9TypeTuple4makeEjPPK4Type(i32 noundef %31, ptr noundef %32)
  store ptr %33, ptr %6, align 8
  %34 = call noundef ptr @_ZN9TypeTuple6fieldsEj(i32 noundef 1)
  store ptr %34, ptr %4, align 8
  %35 = load ptr, ptr @_ZN10TypeRawPtr7NOTNULLE, align 8
  %36 = load ptr, ptr %4, align 8
  %37 = getelementptr inbounds ptr, ptr %36, i64 5
  store ptr %35, ptr %37, align 8
  %38 = load ptr, ptr %4, align 8
  %39 = call noundef ptr @_ZN9TypeTuple4makeEjPPK4Type(i32 noundef 6, ptr noundef %38)
  store ptr %39, ptr %7, align 8
  %40 = load ptr, ptr %6, align 8
  %41 = load ptr, ptr %7, align 8
  %42 = call noundef ptr @_ZN8TypeFunc4makeEPK9TypeTupleS2_(ptr noundef %40, ptr noundef %41)
  ret ptr %42
}