; Function Attrs: mustprogress nounwind uwtable
define hidden noundef ptr @_ZN11OptoRuntime19multianewarray_TypeEi(i32 noundef %0) local_unnamed_addr #0 align 2 {
  %2 = add i32 %0, 1
  %3 = tail call noundef ptr @_ZN9TypeTuple6fieldsEj(i32 noundef %2) #12
  %4 = load ptr, ptr @_ZN11TypeInstPtr7NOTNULLE, align 8
  %5 = getelementptr inbounds i8, ptr %3, i64 40
  store ptr %4, ptr %5, align 8
  %.not14 = icmp slt i32 %0, 1
  br i1 %.not14, label %._crit_edge, label %.lr.ph.preheader

.lr.ph.preheader:                                 ; preds = %1
  %wide.trip.count = zext i32 %2 to i64
  %.pre = load ptr, ptr @_ZN7TypeInt3INTE, align 8
  br label %.lr.ph

.lr.ph:                                           ; preds = %.lr.ph.preheader, %.lr.ph
  %indvars.iv = phi i64 [ 1, %.lr.ph.preheader ], [ %indvars.iv.next, %.lr.ph ]
  %gep = getelementptr inbounds ptr, ptr %5, i64 %indvars.iv
  store ptr %.pre, ptr %gep, align 8
  %indvars.iv.next = add nuw nsw i64 %indvars.iv, 1
  %exitcond.not = icmp eq i64 %indvars.iv.next, %wide.trip.count
  br i1 %exitcond.not, label %._crit_edge, label %.lr.ph, !llvm.loop !7

._crit_edge:                                      ; preds = %.lr.ph, %1
  %6 = add nsw i32 %0, 6
  %7 = tail call noundef ptr @_ZN9TypeTuple4makeEjPPK4Type(i32 noundef %6, ptr noundef nonnull %3) #12
  %8 = tail call noundef ptr @_ZN9TypeTuple6fieldsEj(i32 noundef 1) #12
  %9 = load ptr, ptr @_ZN10TypeRawPtr7NOTNULLE, align 8
  %10 = getelementptr inbounds i8, ptr %8, i64 40
  store ptr %9, ptr %10, align 8
  %11 = tail call noundef ptr @_ZN9TypeTuple4makeEjPPK4Type(i32 noundef 6, ptr noundef %8) #12
  %12 = tail call noundef ptr @_ZN8TypeFunc4makeEPK9TypeTupleS2_(ptr noundef %7, ptr noundef %11) #12
  ret ptr %12
}